target datalayout = "e-m:e-p270:32:32-p271:32:32-p272:64:64-i64:64-i128:128-f80:128-n8:16:32:64-S128"
target triple = "x86_64-pc-linux-gnu"

%struct.iseq_callback_data = type { ptr, ptr }

; Function Attrs: nounwind sspstrong uwtable
define hidden void @rb_yjit_for_each_iseq(ptr noundef %0, ptr noundef %1) #0 {
  %3 = alloca ptr, align 8
  %4 = alloca ptr, align 8
  %5 = alloca %struct.iseq_callback_data, align 8
  store ptr %0, ptr %3, align 8, !tbaa !7
  store ptr %1, ptr %4, align 8, !tbaa !7
  call void @llvm.lifetime.start.p0(i64 16, ptr %5) #5
  %6 = getelementptr inbounds nuw %struct.iseq_callback_data, ptr %5, i32 0, i32 0
  %7 = load ptr, ptr %3, align 8, !tbaa !7
  store ptr %7, ptr %6, align 8, !tbaa !174
  %8 = getelementptr inbounds nuw %struct.iseq_callback_data, ptr %5, i32 0, i32 1
  %9 = load ptr, ptr %4, align 8, !tbaa !7
  store ptr %9, ptr %8, align 8, !tbaa !176
  call void @rb_objspace_each_objects(ptr noundef @for_each_iseq_i, ptr noundef %5)
  call void @llvm.lifetime.end.p0(i64 16, ptr %5) #5
  ret void
}