; Function Attrs: nounwind sspstrong uwtable
define hidden void @rb_yjit_for_each_iseq(ptr noundef %0, ptr noundef %1) local_unnamed_addr #0 {
  %3 = alloca %struct.iseq_callback_data, align 8
  call void @llvm.lifetime.start.p0(i64 16, ptr nonnull %3) #5
  store ptr %0, ptr %3, align 8, !tbaa !190
  %4 = getelementptr inbounds nuw i8, ptr %3, i64 8
  store ptr %1, ptr %4, align 8, !tbaa !192
  call void @rb_objspace_each_objects(ptr noundef nonnull @for_each_iseq_i, ptr noundef nonnull %3) #5
  call void @llvm.lifetime.end.p0(i64 16, ptr nonnull %3) #5
  ret void
}